target datalayout = "e-m:e-p270:32:32-p271:32:32-p272:64:64-i64:64-i128:128-f80:128-n8:16:32:64-S128"
target triple = "x86_64-pc-linux-gnu"

%struct._ir_coalesce_block = type { i32, i32 }

; Function Attrs: nounwind uwtable
define internal i32 @ir_block_cmp(ptr noundef %0, ptr noundef %1) #0 {
  %3 = alloca i32, align 4
  %4 = alloca ptr, align 8
  %5 = alloca ptr, align 8
  %6 = alloca ptr, align 8
  %7 = alloca ptr, align 8
  store ptr %0, ptr %4, align 8
  store ptr %1, ptr %5, align 8
  %8 = load ptr, ptr %4, align 8
  store ptr %8, ptr %6, align 8
  %9 = load ptr, ptr %5, align 8
  store ptr %9, ptr %7, align 8
  %10 = load ptr, ptr %6, align 8
  %11 = getelementptr inbounds %struct._ir_coalesce_block, ptr %10, i32 0, i32 1
  %12 = load i32, ptr %11, align 4
  %13 = load ptr, ptr %7, align 8
  %14 = getelementptr inbounds %struct._ir_coalesce_block, ptr %13, i32 0, i32 1
  %15 = load i32, ptr %14, align 4
  %16 = icmp ugt i32 %12, %15
  br i1 %16, label %17, label %18

17:                                               ; preds = %2
  store i32 -1, ptr %3, align 4
  br label %37

18:                                               ; preds = %2
  %19 = load ptr, ptr %6, align 8
  %20 = getelementptr inbounds %struct._ir_coalesce_block, ptr %19, i32 0, i32 1
  %21 = load i32, ptr %20, align 4
  %22 = load ptr, ptr %7, align 8
  %23 = getelementptr inbounds %struct._ir_coalesce_block, ptr %22, i32 0, i32 1
  %24 = load i32, ptr %23, align 4
  %25 = icmp eq i32 %21, %24
  br i1 %25, label %26, label %36

26:                                               ; preds = %18
  %27 = load ptr, ptr %6, align 8
  %28 = getelementptr inbounds %struct._ir_coalesce_block, ptr %27, i32 0, i32 0
  %29 = load i32, ptr %28, align 4
  %30 = load ptr, ptr %7, align 8
  %31 = getelementptr inbounds %struct._ir_coalesce_block, ptr %30, i32 0, i32 0
  %32 = load i32, ptr %31, align 4
  %33 = icmp ult i32 %29, %32
  br i1 %33, label %34, label %35

34:                                               ; preds = %26
  store i32 -1, ptr %3, align 4
  br label %37

35:                                               ; preds = %26
  store i32 1, ptr %3, align 4
  br label %37

36:                                               ; preds = %18
  store i32 1, ptr %3, align 4
  br label %37

37:                                               ; preds = %36, %35, %34, %17
  %38 = load i32, ptr %3, align 4
  ret i32 %38
}