; Function Attrs: mustprogress nofree norecurse nosync nounwind willreturn memory(argmem: read) uwtable
define internal i32 @ir_block_cmp(ptr nocapture noundef readonly %0, ptr nocapture noundef readonly %1) #7 {
  %3 = getelementptr inbounds i8, ptr %0, i64 4
  %4 = load i32, ptr %3, align 4
  %5 = getelementptr inbounds i8, ptr %1, i64 4
  %6 = load i32, ptr %5, align 4
  %7 = icmp ugt i32 %4, %6
  br i1 %7, label %14, label %8

8:                                                ; preds = %2
  %9 = icmp eq i32 %4, %6
  br i1 %9, label %10, label %14

10:                                               ; preds = %8
  %11 = load i32, ptr %0, align 4
  %12 = load i32, ptr %1, align 4
  %13 = icmp ult i32 %11, %12
  %. = select i1 %13, i32 -1, i32 1
  br label %14

14:                                               ; preds = %8, %10, %2
  %.0 = phi i32 [ -1, %2 ], [ %., %10 ], [ 1, %8 ]
  ret i32 %.0
}